target datalayout = "e-m:e-p270:32:32-p271:32:32-p272:64:64-i64:64-i128:128-f80:128-n8:16:32:64-S128"
target triple = "x86_64-pc-linux-gnu"

%"class.lean::expr" = type { %"class.lean::object_ref" }
%"class.lean::object_ref" = type { ptr }
%"struct.std::pair.2" = type { %"class.lean::expr", %"class.lean::expr" }
%"struct.std::pair" = type <{ %"struct.std::__detail::_Node_iterator", i8, [7 x i8] }>
%"struct.std::__detail::_Node_iterator" = type { %"struct.std::__detail::_Node_iterator_base" }
%"struct.std::__detail::_Node_iterator_base" = type { ptr }
%"class.lean::replace_visitor" = type { ptr, %"class.std::unordered_map" }
%"class.std::unordered_map" = type { %"class.std::_Hashtable" }
%"class.std::_Hashtable" = type { ptr, i64, %"struct.std::__detail::_Hash_node_base", i64, %"struct.std::__detail::_Prime_rehash_policy", ptr }
%"struct.std::__detail::_Hash_node_base" = type { ptr }
%"struct.std::__detail::_Prime_rehash_policy" = type { float, i64 }
%struct.lean_object = type { i32, i32 }

; Function Attrs: inlinehint mustprogress nounwind uwtable
define internal noundef zeroext i1 @_ZL10lean_is_stP11lean_object(ptr noundef %0) #5 {
  %2 = alloca ptr, align 8
  store ptr %0, ptr %2, align 8, !tbaa !33
  %3 = load ptr, ptr %2, align 8, !tbaa !33
  %4 = getelementptr inbounds nuw %struct.lean_object, ptr %3, i32 0, i32 0
  %5 = load i32, ptr %4, align 4, !tbaa !34
  %6 = icmp sgt i32 %5, 0
  ret i1 %6
}

; Function Attrs: inlinehint mustprogress uwtable
define internal void @_ZL12lean_inc_refP11lean_object(ptr noundef %0) #3 {
  %2 = alloca ptr, align 8
  store ptr %0, ptr %2, align 8, !tbaa !33
  %3 = load ptr, ptr %2, align 8, !tbaa !33
  %4 = call noundef zeroext i1 @_ZL10lean_is_stP11lean_object(ptr noundef %3)
  %5 = zext i1 %4 to i64
  %6 = call i64 @llvm.expect.i64(i64 %5, i64 1)
  %7 = icmp ne i64 %6, 0
  br i1 %7, label %8, label %13

8:                                                ; preds = %1
  %9 = load ptr, ptr %2, align 8, !tbaa !33
  %10 = getelementptr inbounds nuw %struct.lean_object, ptr %9, i32 0, i32 0
  %11 = load i32, ptr %10, align 4, !tbaa !34
  %12 = add nsw i32 %11, 1
  store i32 %12, ptr %10, align 4, !tbaa !34
  br label %21

13:                                               ; preds = %1
  %14 = load ptr, ptr %2, align 8, !tbaa !33
  %15 = getelementptr inbounds nuw %struct.lean_object, ptr %14, i32 0, i32 0
  %16 = load i32, ptr %15, align 4, !tbaa !34
  %17 = icmp ne i32 %16, 0
  br i1 %17, label %18, label %20

18:                                               ; preds = %13
  %19 = load ptr, ptr %2, align 8, !tbaa !33
  call void @lean_inc_ref_cold(ptr noundef %19)
  br label %20

20:                                               ; preds = %18, %13
  br label %21

21:                                               ; preds = %20, %8
  ret void
}

; Function Attrs: alwaysinline mustprogress nounwind uwtable
define internal noundef zeroext i1 @_ZL14lean_is_scalarP11lean_object(ptr noundef %0) #8 {
  %2 = alloca ptr, align 8
  store ptr %0, ptr %2, align 8, !tbaa !33
  %3 = load ptr, ptr %2, align 8, !tbaa !33
  %4 = ptrtoint ptr %3 to i64
  %5 = and i64 %4, 1
  %6 = icmp eq i64 %5, 1
  ret i1 %6
}

; Function Attrs: alwaysinline mustprogress uwtable
define internal void @_ZL8lean_incP11lean_object(ptr noundef %0) #7 {
  %2 = alloca ptr, align 8
  store ptr %0, ptr %2, align 8, !tbaa !33
  %3 = load ptr, ptr %2, align 8, !tbaa !33
  %4 = call noundef zeroext i1 @_ZL14lean_is_scalarP11lean_object(ptr noundef %3)
  br i1 %4, label %7, label %5

5:                                                ; preds = %1
  %6 = load ptr, ptr %2, align 8, !tbaa !33
  call void @_ZL12lean_inc_refP11lean_object(ptr noundef %6)
  br label %7

7:                                                ; preds = %5, %1
  ret void
}

; Function Attrs: inlinehint mustprogress uwtable
define linkonce_odr hidden void @_ZN4lean3incEP11lean_object(ptr noundef %0) #3 comdat {
  %2 = alloca ptr, align 8
  store ptr %0, ptr %2, align 8, !tbaa !33
  %3 = load ptr, ptr %2, align 8, !tbaa !33
  call void @_ZL8lean_incP11lean_object(ptr noundef %3)
  ret void
}

; Function Attrs: mustprogress uwtable
define linkonce_odr hidden void @_ZN4lean10object_refC2ERKS0_(ptr noundef nonnull align 8 dereferenceable(8) %0, ptr noundef nonnull align 8 dereferenceable(8) %1) unnamed_addr #0 comdat align 2 {
  %3 = alloca ptr, align 8
  %4 = alloca ptr, align 8
  store ptr %0, ptr %3, align 8, !tbaa !12
  store ptr %1, ptr %4, align 8, !tbaa !12
  %5 = load ptr, ptr %3, align 8
  %6 = getelementptr inbounds nuw %"class.lean::object_ref", ptr %5, i32 0, i32 0
  %7 = load ptr, ptr %4, align 8, !tbaa !12
  %8 = getelementptr inbounds nuw %"class.lean::object_ref", ptr %7, i32 0, i32 0
  %9 = load ptr, ptr %8, align 8, !tbaa !14
  store ptr %9, ptr %6, align 8, !tbaa !14
  %10 = getelementptr inbounds nuw %"class.lean::object_ref", ptr %5, i32 0, i32 0
  %11 = load ptr, ptr %10, align 8, !tbaa !14
  call void @_ZN4lean3incEP11lean_object(ptr noundef %11)
  ret void
}

; Function Attrs: mustprogress uwtable
define linkonce_odr hidden { ptr, i8 } @_ZNSt10_HashtableIN4lean4exprESt4pairIKS1_S1_ESaIS4_ENSt8__detail10_Select1stENS0_16is_bi_equal_procENS0_9expr_hashENS6_18_Mod_range_hashingENS6_20_Default_ranged_hashENS6_20_Prime_rehash_policyENS6_17_Hashtable_traitsILb1ELb0ELb1EEEE7emplaceIJS2_IS1_S1_EEEES2_INS6_14_Node_iteratorIS4_Lb0ELb1EEEbEDpOT_(ptr noundef nonnull align 8 dereferenceable(56) %0, ptr noundef nonnull align 8 dereferenceable(16) %1) #0 comdat align 2 {
  %3 = alloca %"struct.std::pair", align 8
  %4 = alloca ptr, align 8
  %5 = alloca ptr, align 8
  %6 = alloca { ptr, i8 }, align 8
  store ptr %0, ptr %4, align 8, !tbaa !62
  store ptr %1, ptr %5, align 8, !tbaa !22
  %7 = load ptr, ptr %4, align 8
  %8 = load ptr, ptr %5, align 8, !tbaa !22
  %9 = call { ptr, i8 } @_ZNSt10_HashtableIN4lean4exprESt4pairIKS1_S1_ESaIS4_ENSt8__detail10_Select1stENS0_16is_bi_equal_procENS0_9expr_hashENS6_18_Mod_range_hashingENS6_20_Default_ranged_hashENS6_20_Prime_rehash_policyENS6_17_Hashtable_traitsILb1ELb0ELb1EEEE10_M_emplaceIJS2_IS1_S1_EEEES2_INS6_14_Node_iteratorIS4_Lb0ELb1EEEbESt17integral_constantIbLb1EEDpOT_(ptr noundef nonnull align 8 dereferenceable(56) %7, ptr noundef nonnull align 8 dereferenceable(16) %8)
  store { ptr, i8 } %9, ptr %6, align 8
  call void @llvm.memcpy.p0.p0.i64(ptr align 8 %3, ptr align 8 %6, i64 9, i1 false)
  %10 = load { ptr, i8 }, ptr %3, align 8
  ret { ptr, i8 } %10
}

; Function Attrs: mustprogress uwtable
define linkonce_odr hidden void @_ZNSt4pairIN4lean4exprES1_EC2IRKS1_RS1_TnNSt9enable_ifIXaaclsr5_PCCPE22_MoveConstructiblePairIT_T0_EEclsr5_PCCPE30_ImplicitlyMoveConvertiblePairIS8_S9_EEEbE4typeELb1EEEOS8_OS9_(ptr noundef nonnull align 8 dereferenceable(16) %0, ptr noundef nonnull align 8 dereferenceable(8) %1, ptr noundef nonnull align 8 dereferenceable(8) %2) unnamed_addr #0 comdat align 2 personality ptr @__gxx_personality_v0 {
  %4 = alloca ptr, align 8
  %5 = alloca ptr, align 8
  %6 = alloca ptr, align 8
  %7 = alloca ptr, align 8
  %8 = alloca i32, align 4
  store ptr %0, ptr %4, align 8, !tbaa !22
  store ptr %1, ptr %5, align 8, !tbaa !8
  store ptr %2, ptr %6, align 8, !tbaa !8
  %9 = load ptr, ptr %4, align 8
  %10 = getelementptr inbounds nuw %"struct.std::pair.2", ptr %9, i32 0, i32 0
  %11 = load ptr, ptr %5, align 8, !tbaa !8
  call void @_ZN4lean4exprC2ERKS0_(ptr noundef nonnull align 8 dereferenceable(8) %10, ptr noundef nonnull align 8 dereferenceable(8) %11)
  %12 = getelementptr inbounds nuw %"struct.std::pair.2", ptr %9, i32 0, i32 1
  %13 = load ptr, ptr %6, align 8, !tbaa !8
  invoke void @_ZN4lean4exprC2ERKS0_(ptr noundef nonnull align 8 dereferenceable(8) %12, ptr noundef nonnull align 8 dereferenceable(8) %13)
          to label %14 unwind label %15

14:                                               ; preds = %3
  ret void

15:                                               ; preds = %3
  %16 = landingpad { ptr, i32 }
          cleanup
  %17 = extractvalue { ptr, i32 } %16, 0
  store ptr %17, ptr %7, align 8
  %18 = extractvalue { ptr, i32 } %16, 1
  store i32 %18, ptr %8, align 4
  call void @_ZN4lean10object_refD2Ev(ptr noundef nonnull align 8 dereferenceable(8) %10) #16
  br label %19

19:                                               ; preds = %15
  %20 = load ptr, ptr %7, align 8
  %21 = load i32, ptr %8, align 4
  %22 = insertvalue { ptr, i32 } poison, ptr %20, 0
  %23 = insertvalue { ptr, i32 } %22, i32 %21, 1
  resume { ptr, i32 } %23
}

; Function Attrs: mustprogress uwtable
define linkonce_odr hidden void @_ZN4lean4exprC2ERKS0_(ptr noundef nonnull align 8 dereferenceable(8) %0, ptr noundef nonnull align 8 dereferenceable(8) %1) unnamed_addr #0 comdat align 2 {
  %3 = alloca ptr, align 8
  %4 = alloca ptr, align 8
  store ptr %0, ptr %3, align 8, !tbaa !8
  store ptr %1, ptr %4, align 8, !tbaa !8
  %5 = load ptr, ptr %3, align 8
  %6 = load ptr, ptr %4, align 8, !tbaa !8
  call void @_ZN4lean10object_refC2ERKS0_(ptr noundef nonnull align 8 dereferenceable(8) %5, ptr noundef nonnull align 8 dereferenceable(8) %6)
  ret void
}

; Function Attrs: mustprogress uwtable
define linkonce_odr hidden { ptr, i8 } @_ZNSt13unordered_mapIN4lean4exprES1_NS0_9expr_hashENS0_16is_bi_equal_procESaISt4pairIKS1_S1_EEE6insertIS4_IS1_S1_EEENSt9enable_ifIXsr16is_constructibleIS6_OT_EE5valueES4_INSt8__detail14_Node_iteratorIS6_Lb0ELb1EEEbEE4typeESD_(ptr noundef nonnull align 8 dereferenceable(56) %0, ptr noundef nonnull align 8 dereferenceable(16) %1) #0 comdat align 2 {
  %3 = alloca %"struct.std::pair", align 8
  %4 = alloca ptr, align 8
  %5 = alloca ptr, align 8
  %6 = alloca { ptr, i8 }, align 8
  store ptr %0, ptr %4, align 8, !tbaa !20
  store ptr %1, ptr %5, align 8, !tbaa !22
  %7 = load ptr, ptr %4, align 8
  %8 = getelementptr inbounds nuw %"class.std::unordered_map", ptr %7, i32 0, i32 0
  %9 = load ptr, ptr %5, align 8, !tbaa !22
  %10 = call { ptr, i8 } @_ZNSt10_HashtableIN4lean4exprESt4pairIKS1_S1_ESaIS4_ENSt8__detail10_Select1stENS0_16is_bi_equal_procENS0_9expr_hashENS6_18_Mod_range_hashingENS6_20_Default_ranged_hashENS6_20_Prime_rehash_policyENS6_17_Hashtable_traitsILb1ELb0ELb1EEEE7emplaceIJS2_IS1_S1_EEEES2_INS6_14_Node_iteratorIS4_Lb0ELb1EEEbEDpOT_(ptr noundef nonnull align 8 dereferenceable(56) %8, ptr noundef nonnull align 8 dereferenceable(16) %9)
  store { ptr, i8 } %10, ptr %6, align 8
  call void @llvm.memcpy.p0.p0.i64(ptr align 8 %3, ptr align 8 %6, i64 9, i1 false)
  %11 = load { ptr, i8 }, ptr %3, align 8
  ret { ptr, i8 } %11
}

; Function Attrs: mustprogress uwtable
define linkonce_odr hidden void @_ZSt9make_pairIRKN4lean4exprERS1_ESt4pairINSt25__strip_reference_wrapperINSt5decayIT_E4typeEE6__typeENS6_INS7_IT0_E4typeEE6__typeEEOS8_OSD_(ptr dead_on_unwind noalias writable sret(%"struct.std::pair.2") align 8 %0, ptr noundef nonnull align 8 dereferenceable(8) %1, ptr noundef nonnull align 8 dereferenceable(8) %2) #0 comdat {
  %4 = alloca ptr, align 8
  %5 = alloca ptr, align 8
  %6 = alloca ptr, align 8
  store ptr %0, ptr %4, align 8
  store ptr %1, ptr %5, align 8, !tbaa !8
  store ptr %2, ptr %6, align 8, !tbaa !8
  %7 = load ptr, ptr %5, align 8, !tbaa !8
  %8 = load ptr, ptr %6, align 8, !tbaa !8
  call void @_ZNSt4pairIN4lean4exprES1_EC2IRKS1_RS1_TnNSt9enable_ifIXaaclsr5_PCCPE22_MoveConstructiblePairIT_T0_EEclsr5_PCCPE30_ImplicitlyMoveConvertiblePairIS8_S9_EEEbE4typeELb1EEEOS8_OS9_(ptr noundef nonnull align 8 dereferenceable(16) %0, ptr noundef nonnull align 8 dereferenceable(8) %7, ptr noundef nonnull align 8 dereferenceable(8) %8)
  ret void
}

; Function Attrs: mustprogress uwtable
define hidden void @_ZN4lean15replace_visitor11save_resultERKNS_4exprEOS1_b(ptr dead_on_unwind noalias writable sret(%"class.lean::expr") align 8 %0, ptr noundef nonnull align 8 dereferenceable(64) %1, ptr noundef nonnull align 8 dereferenceable(8) %2, ptr noundef nonnull align 8 dereferenceable(8) %3, i1 noundef zeroext %4) #0 align 2 personality ptr @__gxx_personality_v0 {
  %6 = alloca ptr, align 8
  %7 = alloca ptr, align 8
  %8 = alloca ptr, align 8
  %9 = alloca ptr, align 8
  %10 = alloca i8, align 1
  %11 = alloca %"struct.std::pair.2", align 8
  %12 = alloca ptr, align 8
  %13 = alloca i32, align 4
  %14 = alloca %"struct.std::pair", align 8
  store ptr %0, ptr %6, align 8
  store ptr %1, ptr %7, align 8, !tbaa !3
  store ptr %2, ptr %8, align 8, !tbaa !8
  store ptr %3, ptr %9, align 8, !tbaa !8
  %15 = zext i1 %4 to i8
  store i8 %15, ptr %10, align 1, !tbaa !16
  %16 = load ptr, ptr %7, align 8
  %17 = load i8, ptr %10, align 1, !tbaa !16, !range !18, !noundef !19
  %18 = trunc i8 %17 to i1
  br i1 %18, label %19, label %33

19:                                               ; preds = %5
  %20 = getelementptr inbounds nuw %"class.lean::replace_visitor", ptr %16, i32 0, i32 1
  call void @llvm.lifetime.start.p0(i64 16, ptr %11) #16
  %21 = load ptr, ptr %8, align 8, !tbaa !8
  %22 = load ptr, ptr %9, align 8, !tbaa !8
  call void @_ZSt9make_pairIRKN4lean4exprERS1_ESt4pairINSt25__strip_reference_wrapperINSt5decayIT_E4typeEE6__typeENS6_INS7_IT0_E4typeEE6__typeEEOS8_OSD_(ptr dead_on_unwind writable sret(%"struct.std::pair.2") align 8 %11, ptr noundef nonnull align 8 dereferenceable(8) %21, ptr noundef nonnull align 8 dereferenceable(8) %22)
  %23 = invoke { ptr, i8 } @_ZNSt13unordered_mapIN4lean4exprES1_NS0_9expr_hashENS0_16is_bi_equal_procESaISt4pairIKS1_S1_EEE6insertIS4_IS1_S1_EEENSt9enable_ifIXsr16is_constructibleIS6_OT_EE5valueES4_INSt8__detail14_Node_iteratorIS6_Lb0ELb1EEEbEE4typeESD_(ptr noundef nonnull align 8 dereferenceable(56) %20, ptr noundef nonnull align 8 dereferenceable(16) %11)
          to label %24 unwind label %29

24:                                               ; preds = %19
  %25 = getelementptr inbounds nuw { ptr, i8 }, ptr %14, i32 0, i32 0
  %26 = extractvalue { ptr, i8 } %23, 0
  store ptr %26, ptr %25, align 8
  %27 = getelementptr inbounds nuw { ptr, i8 }, ptr %14, i32 0, i32 1
  %28 = extractvalue { ptr, i8 } %23, 1
  store i8 %28, ptr %27, align 8
  call void @_ZNSt4pairIN4lean4exprES1_ED2Ev(ptr noundef nonnull align 8 dereferenceable(16) %11) #16
  call void @llvm.lifetime.end.p0(i64 16, ptr %11) #16
  br label %33

29:                                               ; preds = %19
  %30 = landingpad { ptr, i32 }
          cleanup
  %31 = extractvalue { ptr, i32 } %30, 0
  store ptr %31, ptr %12, align 8
  %32 = extractvalue { ptr, i32 } %30, 1
  store i32 %32, ptr %13, align 4
  call void @_ZNSt4pairIN4lean4exprES1_ED2Ev(ptr noundef nonnull align 8 dereferenceable(16) %11) #16
  call void @llvm.lifetime.end.p0(i64 16, ptr %11) #16
  br label %35

33:                                               ; preds = %24, %5
  %34 = load ptr, ptr %9, align 8, !tbaa !8
  call void @_ZN4lean4exprC2ERKS0_(ptr noundef nonnull align 8 dereferenceable(8) %0, ptr noundef nonnull align 8 dereferenceable(8) %34)
  ret void

35:                                               ; preds = %29
  %36 = load ptr, ptr %12, align 8
  %37 = load i32, ptr %13, align 4
  %38 = insertvalue { ptr, i32 } poison, ptr %36, 0
  %39 = insertvalue { ptr, i32 } %38, i32 %37, 1
  resume { ptr, i32 } %39
}