; Function Attrs: mustprogress uwtable
define hidden void @_ZN4lean15replace_visitor11save_resultERKNS_4exprEOS1_b(ptr dead_on_unwind noalias writable writeonly sret(%"class.lean::expr") align 8 captures(none) %0, ptr noundef nonnull align 8 dereferenceable(64) %1, ptr noundef nonnull readonly align 8 captures(none) dereferenceable(8) %2, ptr noundef nonnull readonly align 8 captures(none) dereferenceable(8) %3, i1 noundef zeroext %4) local_unnamed_addr #0 align 2 personality ptr @__gxx_personality_v0 {
  %6 = alloca %"struct.std::pair.2", align 8
  br i1 %4, label %7, label %59

7:                                                ; preds = %5
  %8 = getelementptr inbounds nuw i8, ptr %1, i64 8
  call void @llvm.lifetime.start.p0(i64 16, ptr nonnull %6) #14
  tail call void @llvm.experimental.noalias.scope.decl(metadata !14)
  %9 = load ptr, ptr %2, align 8, !tbaa !3, !noalias !14
  store ptr %9, ptr %6, align 8, !tbaa !3, !alias.scope !14
  %10 = ptrtoint ptr %9 to i64
  %11 = and i64 %10, 1
  %.not.i.i.i.i.i = icmp eq i64 %11, 0
  br i1 %.not.i.i.i.i.i, label %12, label %_ZN4lean4exprC2ERKS0_.exit.i.i

12:                                               ; preds = %7
  %.val.i.i.i.i.i.i = load i32, ptr %9, align 4, !tbaa !8, !noalias !14
  %13 = icmp sgt i32 %.val.i.i.i.i.i.i, 0
  br i1 %13, label %14, label %16, !prof !11

14:                                               ; preds = %12
  %15 = add nuw nsw i32 %.val.i.i.i.i.i.i, 1
  store i32 %15, ptr %9, align 4, !tbaa !8, !noalias !14
  br label %_ZN4lean4exprC2ERKS0_.exit.i.i

16:                                               ; preds = %12
  %.not.i.i.i.i.i.i = icmp eq i32 %.val.i.i.i.i.i.i, 0
  br i1 %.not.i.i.i.i.i.i, label %_ZN4lean4exprC2ERKS0_.exit.i.i, label %17

17:                                               ; preds = %16
  tail call void @lean_inc_ref_cold(ptr noundef nonnull %9), !noalias !14
  br label %_ZN4lean4exprC2ERKS0_.exit.i.i

_ZN4lean4exprC2ERKS0_.exit.i.i:                   ; preds = %17, %16, %14, %7
  %18 = getelementptr inbounds nuw i8, ptr %6, i64 8
  %19 = load ptr, ptr %3, align 8, !tbaa !3, !noalias !14
  store ptr %19, ptr %18, align 8, !tbaa !3, !alias.scope !14
  %20 = ptrtoint ptr %19 to i64
  %21 = and i64 %20, 1
  %.not.i.i.i4.i.i = icmp eq i64 %21, 0
  br i1 %.not.i.i.i4.i.i, label %22, label %_ZSt9make_pairIRKN4lean4exprERS1_ESt4pairINSt25__strip_reference_wrapperINSt5decayIT_E4typeEE6__typeENS6_INS7_IT0_E4typeEE6__typeEEOS8_OSD_.exit

22:                                               ; preds = %_ZN4lean4exprC2ERKS0_.exit.i.i
  %.val.i.i.i.i5.i.i = load i32, ptr %19, align 4, !tbaa !8, !noalias !14
  %23 = icmp sgt i32 %.val.i.i.i.i5.i.i, 0
  br i1 %23, label %24, label %26, !prof !11

24:                                               ; preds = %22
  %25 = add nuw nsw i32 %.val.i.i.i.i5.i.i, 1
  store i32 %25, ptr %19, align 4, !tbaa !8, !noalias !14
  br label %_ZSt9make_pairIRKN4lean4exprERS1_ESt4pairINSt25__strip_reference_wrapperINSt5decayIT_E4typeEE6__typeENS6_INS7_IT0_E4typeEE6__typeEEOS8_OSD_.exit

26:                                               ; preds = %22
  %.not.i.i.i.i6.i.i = icmp eq i32 %.val.i.i.i.i5.i.i, 0
  br i1 %.not.i.i.i.i6.i.i, label %_ZSt9make_pairIRKN4lean4exprERS1_ESt4pairINSt25__strip_reference_wrapperINSt5decayIT_E4typeEE6__typeENS6_INS7_IT0_E4typeEE6__typeEEOS8_OSD_.exit, label %27

27:                                               ; preds = %26
  invoke void @lean_inc_ref_cold(ptr noundef nonnull %19)
          to label %_ZSt9make_pairIRKN4lean4exprERS1_ESt4pairINSt25__strip_reference_wrapperINSt5decayIT_E4typeEE6__typeENS6_INS7_IT0_E4typeEE6__typeEEOS8_OSD_.exit unwind label %28, !noalias !14

common.resume:                                    ; preds = %57, %28
  %common.resume.op = phi { ptr, i32 } [ %29, %28 ], [ %58, %57 ]
  resume { ptr, i32 } %common.resume.op

28:                                               ; preds = %27
  %29 = landingpad { ptr, i32 }
          cleanup
  call void @_ZN4lean10object_refD2Ev(ptr noundef nonnull align 8 dereferenceable(16) %6) #14
  br label %common.resume

_ZSt9make_pairIRKN4lean4exprERS1_ESt4pairINSt25__strip_reference_wrapperINSt5decayIT_E4typeEE6__typeENS6_INS7_IT0_E4typeEE6__typeEEOS8_OSD_.exit: ; preds = %_ZN4lean4exprC2ERKS0_.exit.i.i, %24, %26, %27
  %30 = invoke { ptr, i8 } @_ZNSt10_HashtableIN4lean4exprESt4pairIKS1_S1_ESaIS4_ENSt8__detail10_Select1stENS0_16is_bi_equal_procENS0_9expr_hashENS6_18_Mod_range_hashingENS6_20_Default_ranged_hashENS6_20_Prime_rehash_policyENS6_17_Hashtable_traitsILb1ELb0ELb1EEEE10_M_emplaceIJS2_IS1_S1_EEEES2_INS6_14_Node_iteratorIS4_Lb0ELb1EEEbESt17integral_constantIbLb1EEDpOT_(ptr noundef nonnull align 8 dereferenceable(56) %8, ptr noundef nonnull align 8 dereferenceable(16) %6)
          to label %_ZNSt13unordered_mapIN4lean4exprES1_NS0_9expr_hashENS0_16is_bi_equal_procESaISt4pairIKS1_S1_EEE6insertIS4_IS1_S1_EEENSt9enable_ifIXsr16is_constructibleIS6_OT_EE5valueES4_INSt8__detail14_Node_iteratorIS6_Lb0ELb1EEEbEE4typeESD_.exit unwind label %57

_ZNSt13unordered_mapIN4lean4exprES1_NS0_9expr_hashENS0_16is_bi_equal_procESaISt4pairIKS1_S1_EEE6insertIS4_IS1_S1_EEENSt9enable_ifIXsr16is_constructibleIS6_OT_EE5valueES4_INSt8__detail14_Node_iteratorIS6_Lb0ELb1EEEbEE4typeESD_.exit: ; preds = %_ZSt9make_pairIRKN4lean4exprERS1_ESt4pairINSt25__strip_reference_wrapperINSt5decayIT_E4typeEE6__typeENS6_INS7_IT0_E4typeEE6__typeEEOS8_OSD_.exit
  %31 = load ptr, ptr %18, align 8, !tbaa !3
  %32 = ptrtoint ptr %31 to i64
  %33 = and i64 %32, 1
  %.not.i.i.i = icmp eq i64 %33, 0
  br i1 %.not.i.i.i, label %34, label %_ZN4lean10object_refD2Ev.exit.i

34:                                               ; preds = %_ZNSt13unordered_mapIN4lean4exprES1_NS0_9expr_hashENS0_16is_bi_equal_procESaISt4pairIKS1_S1_EEE6insertIS4_IS1_S1_EEENSt9enable_ifIXsr16is_constructibleIS6_OT_EE5valueES4_INSt8__detail14_Node_iteratorIS6_Lb0ELb1EEEbEE4typeESD_.exit
  %35 = load i32, ptr %31, align 4, !tbaa !8
  %36 = icmp sgt i32 %35, 1
  br i1 %36, label %37, label %39, !prof !11

37:                                               ; preds = %34
  %38 = add nsw i32 %35, -1
  store i32 %38, ptr %31, align 4, !tbaa !8
  br label %_ZN4lean10object_refD2Ev.exit.i

39:                                               ; preds = %34
  %.not.i.i.i.i = icmp eq i32 %35, 0
  br i1 %.not.i.i.i.i, label %_ZN4lean10object_refD2Ev.exit.i, label %40

40:                                               ; preds = %39
  invoke void @lean_dec_ref_cold(ptr noundef nonnull %31)
          to label %_ZN4lean10object_refD2Ev.exit.i unwind label %41

41:                                               ; preds = %40
  %42 = landingpad { ptr, i32 }
          catch ptr null
  %43 = extractvalue { ptr, i32 } %42, 0
  call void @__clang_call_terminate(ptr %43) #15
  unreachable

_ZN4lean10object_refD2Ev.exit.i:                  ; preds = %40, %39, %37, %_ZNSt13unordered_mapIN4lean4exprES1_NS0_9expr_hashENS0_16is_bi_equal_procESaISt4pairIKS1_S1_EEE6insertIS4_IS1_S1_EEENSt9enable_ifIXsr16is_constructibleIS6_OT_EE5valueES4_INSt8__detail14_Node_iteratorIS6_Lb0ELb1EEEbEE4typeESD_.exit
  %44 = load ptr, ptr %6, align 8, !tbaa !3
  %45 = ptrtoint ptr %44 to i64
  %46 = and i64 %45, 1
  %.not.i.i1.i = icmp eq i64 %46, 0
  br i1 %.not.i.i1.i, label %47, label %_ZNSt4pairIN4lean4exprES1_ED2Ev.exit

47:                                               ; preds = %_ZN4lean10object_refD2Ev.exit.i
  %48 = load i32, ptr %44, align 4, !tbaa !8
  %49 = icmp sgt i32 %48, 1
  br i1 %49, label %50, label %52, !prof !11

50:                                               ; preds = %47
  %51 = add nsw i32 %48, -1
  store i32 %51, ptr %44, align 4, !tbaa !8
  br label %_ZNSt4pairIN4lean4exprES1_ED2Ev.exit

52:                                               ; preds = %47
  %.not.i.i.i2.i = icmp eq i32 %48, 0
  br i1 %.not.i.i.i2.i, label %_ZNSt4pairIN4lean4exprES1_ED2Ev.exit, label %53

53:                                               ; preds = %52
  invoke void @lean_dec_ref_cold(ptr noundef nonnull %44)
          to label %_ZNSt4pairIN4lean4exprES1_ED2Ev.exit unwind label %54

54:                                               ; preds = %53
  %55 = landingpad { ptr, i32 }
          catch ptr null
  %56 = extractvalue { ptr, i32 } %55, 0
  call void @__clang_call_terminate(ptr %56) #15
  unreachable

_ZNSt4pairIN4lean4exprES1_ED2Ev.exit:             ; preds = %_ZN4lean10object_refD2Ev.exit.i, %50, %52, %53
  call void @llvm.lifetime.end.p0(i64 16, ptr nonnull %6) #14
  br label %59

57:                                               ; preds = %_ZSt9make_pairIRKN4lean4exprERS1_ESt4pairINSt25__strip_reference_wrapperINSt5decayIT_E4typeEE6__typeENS6_INS7_IT0_E4typeEE6__typeEEOS8_OSD_.exit
  %58 = landingpad { ptr, i32 }
          cleanup
  call void @_ZNSt4pairIN4lean4exprES1_ED2Ev(ptr noundef nonnull align 8 dereferenceable(16) %6) #14
  call void @llvm.lifetime.end.p0(i64 16, ptr nonnull %6) #14
  br label %common.resume

59:                                               ; preds = %_ZNSt4pairIN4lean4exprES1_ED2Ev.exit, %5
  %60 = load ptr, ptr %3, align 8, !tbaa !3
  store ptr %60, ptr %0, align 8, !tbaa !3
  %61 = ptrtoint ptr %60 to i64
  %62 = and i64 %61, 1
  %.not.i.i.i6 = icmp eq i64 %62, 0
  br i1 %.not.i.i.i6, label %63, label %_ZN4lean4exprC2ERKS0_.exit

63:                                               ; preds = %59
  %.val.i.i.i.i = load i32, ptr %60, align 4, !tbaa !8
  %64 = icmp sgt i32 %.val.i.i.i.i, 0
  br i1 %64, label %65, label %67, !prof !11

65:                                               ; preds = %63
  %66 = add nuw nsw i32 %.val.i.i.i.i, 1
  store i32 %66, ptr %60, align 4, !tbaa !8
  br label %_ZN4lean4exprC2ERKS0_.exit

67:                                               ; preds = %63
  %.not.i.i.i.i7 = icmp eq i32 %.val.i.i.i.i, 0
  br i1 %.not.i.i.i.i7, label %_ZN4lean4exprC2ERKS0_.exit, label %68

68:                                               ; preds = %67
  call void @lean_inc_ref_cold(ptr noundef nonnull %60)
  br label %_ZN4lean4exprC2ERKS0_.exit

_ZN4lean4exprC2ERKS0_.exit:                       ; preds = %59, %65, %67, %68
  ret void
}